target datalayout = "e-m:e-p270:32:32-p271:32:32-p272:64:64-i64:64-i128:128-f80:128-n8:16:32:64-S128"
target triple = "x86_64-pc-linux-gnu"

; Function Attrs: mustprogress nounwind uwtable
define linkonce_odr dso_local noundef double @_ZN11flatbuffers12EndianScalarIdEET_S1_(double noundef %0) #1 comdat {
  %2 = alloca double, align 8
  store double %0, ptr %2, align 8, !tbaa !23
  %3 = load double, ptr %2, align 8, !tbaa !23
  ret double %3
}

; Function Attrs: mustprogress nounwind uwtable
define linkonce_odr dso_local noundef float @_ZN11flatbuffers12EndianScalarIfEET_S1_(float noundef %0) #1 comdat {
  %2 = alloca float, align 4
  store float %0, ptr %2, align 4, !tbaa !21
  %3 = load float, ptr %2, align 4, !tbaa !21
  ret float %3
}

; Function Attrs: mustprogress nounwind uwtable
define linkonce_odr dso_local noundef i64 @_ZN11flatbuffers12EndianScalarImEET_S1_(i64 noundef %0) #1 comdat {
  %2 = alloca i64, align 8
  store i64 %0, ptr %2, align 8, !tbaa !19
  %3 = load i64, ptr %2, align 8, !tbaa !19
  ret i64 %3
}

; Function Attrs: mustprogress nounwind uwtable
define linkonce_odr dso_local noundef i64 @_ZN11flatbuffers12EndianScalarIlEET_S1_(i64 noundef %0) #1 comdat {
  %2 = alloca i64, align 8
  store i64 %0, ptr %2, align 8, !tbaa !19
  %3 = load i64, ptr %2, align 8, !tbaa !19
  ret i64 %3
}

; Function Attrs: mustprogress nounwind uwtable
define linkonce_odr dso_local noundef i32 @_ZN11flatbuffers12EndianScalarIjEET_S1_(i32 noundef %0) #1 comdat {
  %2 = alloca i32, align 4
  store i32 %0, ptr %2, align 4, !tbaa !17
  %3 = load i32, ptr %2, align 4, !tbaa !17
  ret i32 %3
}

; Function Attrs: mustprogress nounwind uwtable
define linkonce_odr dso_local noundef i32 @_ZN11flatbuffers12EndianScalarIiEET_S1_(i32 noundef %0) #1 comdat {
  %2 = alloca i32, align 4
  store i32 %0, ptr %2, align 4, !tbaa !17
  %3 = load i32, ptr %2, align 4, !tbaa !17
  ret i32 %3
}

; Function Attrs: mustprogress nounwind uwtable
define linkonce_odr dso_local noundef zeroext i16 @_ZN11flatbuffers12EndianScalarItEET_S1_(i16 noundef zeroext %0) #1 comdat {
  %2 = alloca i16, align 2
  store i16 %0, ptr %2, align 2, !tbaa !15
  %3 = load i16, ptr %2, align 2, !tbaa !15
  ret i16 %3
}

; Function Attrs: mustprogress nounwind uwtable
define linkonce_odr dso_local noundef signext i16 @_ZN11flatbuffers12EndianScalarIsEET_S1_(i16 noundef signext %0) #1 comdat {
  %2 = alloca i16, align 2
  store i16 %0, ptr %2, align 2, !tbaa !15
  %3 = load i16, ptr %2, align 2, !tbaa !15
  ret i16 %3
}

; Function Attrs: mustprogress nounwind uwtable
define linkonce_odr dso_local noundef signext i8 @_ZN11flatbuffers12EndianScalarIaEET_S1_(i8 noundef signext %0) #1 comdat {
  %2 = alloca i8, align 1
  store i8 %0, ptr %2, align 1, !tbaa !14
  %3 = load i8, ptr %2, align 1, !tbaa !14
  ret i8 %3
}

; Function Attrs: mustprogress nounwind uwtable
define linkonce_odr dso_local noundef zeroext i8 @_ZN11flatbuffers12EndianScalarIhEET_S1_(i8 noundef zeroext %0) #1 comdat {
  %2 = alloca i8, align 1
  store i8 %0, ptr %2, align 1, !tbaa !14
  %3 = load i8, ptr %2, align 1, !tbaa !14
  ret i8 %3
}

; Function Attrs: mustprogress nounwind uwtable
define linkonce_odr dso_local void @_ZN11flatbuffers11WriteScalarIdEEvPvT_(ptr noundef %0, double noundef %1) #1 comdat {
  %3 = alloca ptr, align 8
  %4 = alloca double, align 8
  store ptr %0, ptr %3, align 8, !tbaa !13
  store double %1, ptr %4, align 8, !tbaa !23
  %5 = load double, ptr %4, align 8, !tbaa !23
  %6 = call noundef double @_ZN11flatbuffers12EndianScalarIdEET_S1_(double noundef %5)
  %7 = load ptr, ptr %3, align 8, !tbaa !13
  store double %6, ptr %7, align 8, !tbaa !23
  ret void
}

; Function Attrs: mustprogress nounwind uwtable
define linkonce_odr dso_local void @_ZN11flatbuffers11WriteScalarIfEEvPvT_(ptr noundef %0, float noundef %1) #1 comdat {
  %3 = alloca ptr, align 8
  %4 = alloca float, align 4
  store ptr %0, ptr %3, align 8, !tbaa !13
  store float %1, ptr %4, align 4, !tbaa !21
  %5 = load float, ptr %4, align 4, !tbaa !21
  %6 = call noundef float @_ZN11flatbuffers12EndianScalarIfEET_S1_(float noundef %5)
  %7 = load ptr, ptr %3, align 8, !tbaa !13
  store float %6, ptr %7, align 4, !tbaa !21
  ret void
}

; Function Attrs: mustprogress nounwind uwtable
define linkonce_odr dso_local void @_ZN11flatbuffers11WriteScalarImEEvPvT_(ptr noundef %0, i64 noundef %1) #1 comdat {
  %3 = alloca ptr, align 8
  %4 = alloca i64, align 8
  store ptr %0, ptr %3, align 8, !tbaa !13
  store i64 %1, ptr %4, align 8, !tbaa !19
  %5 = load i64, ptr %4, align 8, !tbaa !19
  %6 = call noundef i64 @_ZN11flatbuffers12EndianScalarImEET_S1_(i64 noundef %5)
  %7 = load ptr, ptr %3, align 8, !tbaa !13
  store i64 %6, ptr %7, align 8, !tbaa !19
  ret void
}

; Function Attrs: mustprogress nounwind uwtable
define linkonce_odr dso_local void @_ZN11flatbuffers11WriteScalarIlEEvPvT_(ptr noundef %0, i64 noundef %1) #1 comdat {
  %3 = alloca ptr, align 8
  %4 = alloca i64, align 8
  store ptr %0, ptr %3, align 8, !tbaa !13
  store i64 %1, ptr %4, align 8, !tbaa !19
  %5 = load i64, ptr %4, align 8, !tbaa !19
  %6 = call noundef i64 @_ZN11flatbuffers12EndianScalarIlEET_S1_(i64 noundef %5)
  %7 = load ptr, ptr %3, align 8, !tbaa !13
  store i64 %6, ptr %7, align 8, !tbaa !19
  ret void
}

; Function Attrs: mustprogress nounwind uwtable
define linkonce_odr dso_local void @_ZN11flatbuffers11WriteScalarIjEEvPvT_(ptr noundef %0, i32 noundef %1) #1 comdat {
  %3 = alloca ptr, align 8
  %4 = alloca i32, align 4
  store ptr %0, ptr %3, align 8, !tbaa !13
  store i32 %1, ptr %4, align 4, !tbaa !17
  %5 = load i32, ptr %4, align 4, !tbaa !17
  %6 = call noundef i32 @_ZN11flatbuffers12EndianScalarIjEET_S1_(i32 noundef %5)
  %7 = load ptr, ptr %3, align 8, !tbaa !13
  store i32 %6, ptr %7, align 4, !tbaa !17
  ret void
}

; Function Attrs: mustprogress nounwind uwtable
define linkonce_odr dso_local void @_ZN11flatbuffers11WriteScalarIiEEvPvT_(ptr noundef %0, i32 noundef %1) #1 comdat {
  %3 = alloca ptr, align 8
  %4 = alloca i32, align 4
  store ptr %0, ptr %3, align 8, !tbaa !13
  store i32 %1, ptr %4, align 4, !tbaa !17
  %5 = load i32, ptr %4, align 4, !tbaa !17
  %6 = call noundef i32 @_ZN11flatbuffers12EndianScalarIiEET_S1_(i32 noundef %5)
  %7 = load ptr, ptr %3, align 8, !tbaa !13
  store i32 %6, ptr %7, align 4, !tbaa !17
  ret void
}

; Function Attrs: mustprogress nounwind uwtable
define linkonce_odr dso_local void @_ZN11flatbuffers11WriteScalarItEEvPvT_(ptr noundef %0, i16 noundef zeroext %1) #1 comdat {
  %3 = alloca ptr, align 8
  %4 = alloca i16, align 2
  store ptr %0, ptr %3, align 8, !tbaa !13
  store i16 %1, ptr %4, align 2, !tbaa !15
  %5 = load i16, ptr %4, align 2, !tbaa !15
  %6 = call noundef zeroext i16 @_ZN11flatbuffers12EndianScalarItEET_S1_(i16 noundef zeroext %5)
  %7 = load ptr, ptr %3, align 8, !tbaa !13
  store i16 %6, ptr %7, align 2, !tbaa !15
  ret void
}

; Function Attrs: mustprogress nounwind uwtable
define linkonce_odr dso_local void @_ZN11flatbuffers11WriteScalarIsEEvPvT_(ptr noundef %0, i16 noundef signext %1) #1 comdat {
  %3 = alloca ptr, align 8
  %4 = alloca i16, align 2
  store ptr %0, ptr %3, align 8, !tbaa !13
  store i16 %1, ptr %4, align 2, !tbaa !15
  %5 = load i16, ptr %4, align 2, !tbaa !15
  %6 = call noundef signext i16 @_ZN11flatbuffers12EndianScalarIsEET_S1_(i16 noundef signext %5)
  %7 = load ptr, ptr %3, align 8, !tbaa !13
  store i16 %6, ptr %7, align 2, !tbaa !15
  ret void
}

; Function Attrs: mustprogress nounwind uwtable
define linkonce_odr dso_local void @_ZN11flatbuffers11WriteScalarIaEEvPvT_(ptr noundef %0, i8 noundef signext %1) #1 comdat {
  %3 = alloca ptr, align 8
  %4 = alloca i8, align 1
  store ptr %0, ptr %3, align 8, !tbaa !13
  store i8 %1, ptr %4, align 1, !tbaa !14
  %5 = load i8, ptr %4, align 1, !tbaa !14
  %6 = call noundef signext i8 @_ZN11flatbuffers12EndianScalarIaEET_S1_(i8 noundef signext %5)
  %7 = load ptr, ptr %3, align 8, !tbaa !13
  store i8 %6, ptr %7, align 1, !tbaa !14
  ret void
}

; Function Attrs: mustprogress nounwind uwtable
define linkonce_odr dso_local void @_ZN11flatbuffers11WriteScalarIhEEvPvT_(ptr noundef %0, i8 noundef zeroext %1) #1 comdat {
  %3 = alloca ptr, align 8
  %4 = alloca i8, align 1
  store ptr %0, ptr %3, align 8, !tbaa !13
  store i8 %1, ptr %4, align 1, !tbaa !14
  %5 = load i8, ptr %4, align 1, !tbaa !14
  %6 = call noundef zeroext i8 @_ZN11flatbuffers12EndianScalarIhEET_S1_(i8 noundef zeroext %5)
  %7 = load ptr, ptr %3, align 8, !tbaa !13
  store i8 %6, ptr %7, align 1, !tbaa !14
  ret void
}

; Function Attrs: mustprogress uwtable
define dso_local void @_ZN11flatbuffers12SetAnyValueIEN10reflection8BaseTypeEPhl(i32 noundef %0, ptr noundef %1, i64 noundef %2) #0 {
  %4 = alloca i32, align 4
  %5 = alloca ptr, align 8
  %6 = alloca i64, align 8
  store i32 %0, ptr %4, align 4, !tbaa !4
  store ptr %1, ptr %5, align 8, !tbaa !8
  store i64 %2, ptr %6, align 8, !tbaa !19
  %7 = load i32, ptr %4, align 4, !tbaa !4
  switch i32 %7, label %46 [
    i32 1, label %8
    i32 2, label %8
    i32 4, label %8
    i32 3, label %12
    i32 5, label %16
    i32 6, label %20
    i32 7, label %24
    i32 8, label %28
    i32 9, label %32
    i32 10, label %35
    i32 11, label %38
    i32 12, label %42
  ]

8:                                                ; preds = %3, %3, %3
  %9 = load ptr, ptr %5, align 8, !tbaa !8
  %10 = load i64, ptr %6, align 8, !tbaa !19
  %11 = trunc i64 %10 to i8
  call void @_ZN11flatbuffers11WriteScalarIhEEvPvT_(ptr noundef %9, i8 noundef zeroext %11)
  br label %47

12:                                               ; preds = %3
  %13 = load ptr, ptr %5, align 8, !tbaa !8
  %14 = load i64, ptr %6, align 8, !tbaa !19
  %15 = trunc i64 %14 to i8
  call void @_ZN11flatbuffers11WriteScalarIaEEvPvT_(ptr noundef %13, i8 noundef signext %15)
  br label %47

16:                                               ; preds = %3
  %17 = load ptr, ptr %5, align 8, !tbaa !8
  %18 = load i64, ptr %6, align 8, !tbaa !19
  %19 = trunc i64 %18 to i16
  call void @_ZN11flatbuffers11WriteScalarIsEEvPvT_(ptr noundef %17, i16 noundef signext %19)
  br label %47

20:                                               ; preds = %3
  %21 = load ptr, ptr %5, align 8, !tbaa !8
  %22 = load i64, ptr %6, align 8, !tbaa !19
  %23 = trunc i64 %22 to i16
  call void @_ZN11flatbuffers11WriteScalarItEEvPvT_(ptr noundef %21, i16 noundef zeroext %23)
  br label %47

24:                                               ; preds = %3
  %25 = load ptr, ptr %5, align 8, !tbaa !8
  %26 = load i64, ptr %6, align 8, !tbaa !19
  %27 = trunc i64 %26 to i32
  call void @_ZN11flatbuffers11WriteScalarIiEEvPvT_(ptr noundef %25, i32 noundef %27)
  br label %47

28:                                               ; preds = %3
  %29 = load ptr, ptr %5, align 8, !tbaa !8
  %30 = load i64, ptr %6, align 8, !tbaa !19
  %31 = trunc i64 %30 to i32
  call void @_ZN11flatbuffers11WriteScalarIjEEvPvT_(ptr noundef %29, i32 noundef %31)
  br label %47

32:                                               ; preds = %3
  %33 = load ptr, ptr %5, align 8, !tbaa !8
  %34 = load i64, ptr %6, align 8, !tbaa !19
  call void @_ZN11flatbuffers11WriteScalarIlEEvPvT_(ptr noundef %33, i64 noundef %34)
  br label %47

35:                                               ; preds = %3
  %36 = load ptr, ptr %5, align 8, !tbaa !8
  %37 = load i64, ptr %6, align 8, !tbaa !19
  call void @_ZN11flatbuffers11WriteScalarImEEvPvT_(ptr noundef %36, i64 noundef %37)
  br label %47

38:                                               ; preds = %3
  %39 = load ptr, ptr %5, align 8, !tbaa !8
  %40 = load i64, ptr %6, align 8, !tbaa !19
  %41 = sitofp i64 %40 to float
  call void @_ZN11flatbuffers11WriteScalarIfEEvPvT_(ptr noundef %39, float noundef %41)
  br label %47

42:                                               ; preds = %3
  %43 = load ptr, ptr %5, align 8, !tbaa !8
  %44 = load i64, ptr %6, align 8, !tbaa !19
  %45 = sitofp i64 %44 to double
  call void @_ZN11flatbuffers11WriteScalarIdEEvPvT_(ptr noundef %43, double noundef %45)
  br label %47

46:                                               ; preds = %3
  br label %47

47:                                               ; preds = %46, %42, %38, %35, %32, %28, %24, %20, %16, %12, %8
  ret void
}