; Function Attrs: mustprogress nofree norecurse nosync nounwind willreturn memory(argmem: write) uwtable
define dso_local void @_ZN11flatbuffers12SetAnyValueIEN10reflection8BaseTypeEPhl(i32 noundef %0, ptr noundef writeonly captures(none) %1, i64 noundef %2) local_unnamed_addr #4 {
  switch i32 %0, label %22 [
    i32 1, label %4
    i32 2, label %4
    i32 4, label %4
    i32 3, label %6
    i32 5, label %8
    i32 6, label %10
    i32 7, label %12
    i32 8, label %14
    i32 9, label %16
    i32 10, label %17
    i32 11, label %18
    i32 12, label %20
  ]

4:                                                ; preds = %3, %3, %3
  %5 = trunc i64 %2 to i8
  store i8 %5, ptr %1, align 1, !tbaa !4
  br label %22

6:                                                ; preds = %3
  %7 = trunc i64 %2 to i8
  store i8 %7, ptr %1, align 1, !tbaa !4
  br label %22

8:                                                ; preds = %3
  %9 = trunc i64 %2 to i16
  store i16 %9, ptr %1, align 2, !tbaa !7
  br label %22

10:                                               ; preds = %3
  %11 = trunc i64 %2 to i16
  store i16 %11, ptr %1, align 2, !tbaa !7
  br label %22

12:                                               ; preds = %3
  %13 = trunc i64 %2 to i32
  store i32 %13, ptr %1, align 4, !tbaa !9
  br label %22

14:                                               ; preds = %3
  %15 = trunc i64 %2 to i32
  store i32 %15, ptr %1, align 4, !tbaa !9
  br label %22

16:                                               ; preds = %3
  store i64 %2, ptr %1, align 8, !tbaa !11
  br label %22

17:                                               ; preds = %3
  store i64 %2, ptr %1, align 8, !tbaa !11
  br label %22

18:                                               ; preds = %3
  %19 = sitofp i64 %2 to float
  store float %19, ptr %1, align 4, !tbaa !13
  br label %22

20:                                               ; preds = %3
  %21 = sitofp i64 %2 to double
  store double %21, ptr %1, align 8, !tbaa !15
  br label %22

22:                                               ; preds = %3, %20, %18, %17, %16, %14, %12, %10, %8, %6, %4
  ret void
}